target datalayout = "e-m:e-p270:32:32-p271:32:32-p272:64:64-i64:64-i128:128-f80:128-n8:16:32:64-S128"
target triple = "x86_64-pc-linux-gnu"

; Function Attrs: mustprogress nounwind uwtable
define dso_local noundef zeroext i8 @_ZN4Luau7CodeGen3X6415getConditionIntENS0_11IrConditionE(i8 noundef zeroext %0) #4 {
  %2 = alloca i8, align 1
  %3 = alloca i8, align 1
  store i8 %0, ptr %3, align 1, !tbaa !9
  %4 = load i8, ptr %3, align 1, !tbaa !9
  switch i8 %4, label %19 [
    i8 0, label %5
    i8 1, label %6
    i8 2, label %7
    i8 3, label %8
    i8 4, label %9
    i8 5, label %10
    i8 6, label %11
    i8 7, label %12
    i8 8, label %13
    i8 9, label %14
    i8 10, label %15
    i8 11, label %16
    i8 12, label %17
    i8 13, label %18
  ]

5:                                                ; preds = %1
  store i8 8, ptr %2, align 1
  br label %20

6:                                                ; preds = %1
  store i8 17, ptr %2, align 1
  br label %20

7:                                                ; preds = %1
  store i8 9, ptr %2, align 1
  br label %20

8:                                                ; preds = %1
  store i8 18, ptr %2, align 1
  br label %20

9:                                                ; preds = %1
  store i8 10, ptr %2, align 1
  br label %20

10:                                               ; preds = %1
  store i8 19, ptr %2, align 1
  br label %20

11:                                               ; preds = %1
  store i8 11, ptr %2, align 1
  br label %20

12:                                               ; preds = %1
  store i8 20, ptr %2, align 1
  br label %20

13:                                               ; preds = %1
  store i8 12, ptr %2, align 1
  br label %20

14:                                               ; preds = %1
  store i8 21, ptr %2, align 1
  br label %20

15:                                               ; preds = %1
  store i8 4, ptr %2, align 1
  br label %20

16:                                               ; preds = %1
  store i8 5, ptr %2, align 1
  br label %20

17:                                               ; preds = %1
  store i8 6, ptr %2, align 1
  br label %20

18:                                               ; preds = %1
  store i8 7, ptr %2, align 1
  br label %20

19:                                               ; preds = %1
  store i8 22, ptr %2, align 1
  br label %20

20:                                               ; preds = %19, %18, %17, %16, %15, %14, %13, %12, %11, %10, %9, %8, %7, %6, %5
  %21 = load i8, ptr %2, align 1
  ret i8 %21
}