; Function Attrs: mustprogress nofree norecurse nosync nounwind willreturn memory(none) uwtable
define dso_local noundef zeroext range(i8 4, 23) i8 @_ZN4Luau7CodeGen3X6415getConditionIntENS0_11IrConditionE(i8 noundef zeroext %0) local_unnamed_addr #2 {
  %2 = icmp ult i8 %0, 14
  br i1 %2, label %switch.lookup, label %4

switch.lookup:                                    ; preds = %1
  %3 = zext nneg i8 %0 to i64
  %switch.gep = getelementptr inbounds nuw [14 x i8], ptr @switch.table._ZN4Luau7CodeGen3X6415getConditionIntENS0_11IrConditionE, i64 0, i64 %3
  %switch.load = load i8, ptr %switch.gep, align 1
  br label %4

4:                                                ; preds = %1, %switch.lookup
  %.0 = phi i8 [ %switch.load, %switch.lookup ], [ 22, %1 ]
  ret i8 %.0
}